; Function Attrs: mustprogress uwtable
define void @_ZN13IlmThread_3_210ThreadPool17setThreadProviderEPNS_18ThreadPoolProviderE(ptr nocapture noundef nonnull readonly align 8 dereferenceable(16) %this, ptr noundef %provider) local_unnamed_addr #0 align 2 personality ptr @__gxx_personality_v0 {
entry:
  %agg.tmp = alloca %"class.std::shared_ptr", align 8
  %_data = getelementptr inbounds i8, ptr %this, i64 8
  %0 = load ptr, ptr %_data, align 8
  store ptr %provider, ptr %agg.tmp, align 8
  %_M_refcount.i.i = getelementptr inbounds i8, ptr %agg.tmp, i64 8
  %call.i.i.i.i = invoke noalias noundef nonnull dereferenceable(24) ptr @_Znwm(i64 noundef 24) #25
          to label %_ZNSt10shared_ptrIN13IlmThread_3_218ThreadPoolProviderEEC2IS1_vEEPT_.exit unwind label %lpad.i.i.i.i

lpad.i.i.i.i:                                     ; preds = %entry
  %1 = landingpad { ptr, i32 }
          catch ptr null
  %2 = extractvalue { ptr, i32 } %1, 0
  %3 = tail call ptr @__cxa_begin_catch(ptr %2) #23
  %isnull.i.i.i.i = icmp eq ptr %provider, null
  br i1 %isnull.i.i.i.i, label %delete.end.i.i.i.i, label %delete.notnull.i.i.i.i

delete.notnull.i.i.i.i:                           ; preds = %lpad.i.i.i.i
  %vtable.i.i.i.i = load ptr, ptr %provider, align 8
  %vfn.i.i.i.i = getelementptr inbounds i8, ptr %vtable.i.i.i.i, i64 8
  %4 = load ptr, ptr %vfn.i.i.i.i, align 8
  tail call void %4(ptr noundef nonnull align 8 dereferenceable(8) %provider) #23
  br label %delete.end.i.i.i.i

delete.end.i.i.i.i:                               ; preds = %delete.notnull.i.i.i.i, %lpad.i.i.i.i
  invoke void @__cxa_rethrow() #27
          to label %unreachable.i.i.i.i unwind label %lpad3.i.i.i.i

lpad3.i.i.i.i:                                    ; preds = %delete.end.i.i.i.i
  %5 = landingpad { ptr, i32 }
          cleanup
  invoke void @__cxa_end_catch()
          to label %common.resume unwind label %terminate.lpad.i.i.i.i

common.resume:                                    ; preds = %lpad3.i.i.i.i, %lpad
  %common.resume.op = phi { ptr, i32 } [ %19, %lpad ], [ %5, %lpad3.i.i.i.i ]
  resume { ptr, i32 } %common.resume.op

terminate.lpad.i.i.i.i:                           ; preds = %lpad3.i.i.i.i
  %6 = landingpad { ptr, i32 }
          catch ptr null
  %7 = extractvalue { ptr, i32 } %6, 0
  tail call void @__clang_call_terminate(ptr %7) #24
  unreachable

unreachable.i.i.i.i:                              ; preds = %delete.end.i.i.i.i
  unreachable

_ZNSt10shared_ptrIN13IlmThread_3_218ThreadPoolProviderEEC2IS1_vEEPT_.exit: ; preds = %entry
  %_M_use_count.i.i.i.i.i.i = getelementptr inbounds i8, ptr %call.i.i.i.i, i64 8
  store i32 1, ptr %_M_use_count.i.i.i.i.i.i, align 8
  %_M_weak_count.i.i.i.i.i.i = getelementptr inbounds i8, ptr %call.i.i.i.i, i64 12
  store i32 1, ptr %_M_weak_count.i.i.i.i.i.i, align 4
  store ptr getelementptr inbounds ({ [7 x ptr] }, ptr @_ZTVSt15_Sp_counted_ptrIPN13IlmThread_3_218ThreadPoolProviderELN9__gnu_cxx12_Lock_policyE2EE, i64 0, i32 0, i64 2), ptr %call.i.i.i.i, align 8
  %_M_ptr.i.i.i.i.i = getelementptr inbounds i8, ptr %call.i.i.i.i, i64 16
  store ptr %provider, ptr %_M_ptr.i.i.i.i.i, align 8
  store ptr %call.i.i.i.i, ptr %_M_refcount.i.i, align 8
  invoke void @_ZN13IlmThread_3_210ThreadPool4Data11setProviderESt10shared_ptrINS_18ThreadPoolProviderEE(ptr noundef nonnull align 8 dereferenceable(16) %0, ptr noundef nonnull %agg.tmp)
          to label %invoke.cont unwind label %lpad

invoke.cont:                                      ; preds = %_ZNSt10shared_ptrIN13IlmThread_3_218ThreadPoolProviderEEC2IS1_vEEPT_.exit
  %8 = load ptr, ptr %_M_refcount.i.i, align 8
  %cmp.not.i.i.i = icmp eq ptr %8, null
  br i1 %cmp.not.i.i.i, label %_ZNSt10shared_ptrIN13IlmThread_3_218ThreadPoolProviderEED2Ev.exit, label %if.then.i.i.i

if.then.i.i.i:                                    ; preds = %invoke.cont
  %_M_use_count.i.i.i.i = getelementptr inbounds i8, ptr %8, i64 8
  %9 = load atomic i64, ptr %_M_use_count.i.i.i.i acquire, align 8
  %cmp.i.i.i.i = icmp eq i64 %9, 4294967297
  %10 = trunc i64 %9 to i32
  br i1 %cmp.i.i.i.i, label %if.then.i.i.i.i, label %if.end.i.i.i.i

if.then.i.i.i.i:                                  ; preds = %if.then.i.i.i
  store i32 0, ptr %_M_use_count.i.i.i.i, align 8
  %_M_weak_count.i.i.i.i = getelementptr inbounds i8, ptr %8, i64 12
  store i32 0, ptr %_M_weak_count.i.i.i.i, align 4
  %vtable.i.i.i.i3 = load ptr, ptr %8, align 8
  %vfn.i.i.i.i4 = getelementptr inbounds i8, ptr %vtable.i.i.i.i3, i64 16
  %11 = load ptr, ptr %vfn.i.i.i.i4, align 8
  call void %11(ptr noundef nonnull align 8 dereferenceable(16) %8) #23
  br label %if.end8.sink.split.i.i.i.i

if.end.i.i.i.i:                                   ; preds = %if.then.i.i.i
  %12 = load i8, ptr @__libc_single_threaded, align 1
  %tobool.i.i.not.i.i.i.i = icmp eq i8 %12, 0
  br i1 %tobool.i.i.not.i.i.i.i, label %if.else.i.i.i.i.i, label %if.then.i.i.i.i.i

if.then.i.i.i.i.i:                                ; preds = %if.end.i.i.i.i
  %add.i.i.i.i.i = add nsw i32 %10, -1
  store i32 %add.i.i.i.i.i, ptr %_M_use_count.i.i.i.i, align 4
  br label %_ZN9__gnu_cxx27__exchange_and_add_dispatchEPii.exit.i.i.i.i

if.else.i.i.i.i.i:                                ; preds = %if.end.i.i.i.i
  %13 = atomicrmw volatile add ptr %_M_use_count.i.i.i.i, i32 -1 acq_rel, align 4
  br label %_ZN9__gnu_cxx27__exchange_and_add_dispatchEPii.exit.i.i.i.i

_ZN9__gnu_cxx27__exchange_and_add_dispatchEPii.exit.i.i.i.i: ; preds = %if.else.i.i.i.i.i, %if.then.i.i.i.i.i
  %retval.i.0.i.i.i.i = phi i32 [ %10, %if.then.i.i.i.i.i ], [ %13, %if.else.i.i.i.i.i ]
  %cmp6.i.i.i.i = icmp eq i32 %retval.i.0.i.i.i.i, 1
  br i1 %cmp6.i.i.i.i, label %if.then7.i.i.i.i, label %_ZNSt10shared_ptrIN13IlmThread_3_218ThreadPoolProviderEED2Ev.exit

if.then7.i.i.i.i:                                 ; preds = %_ZN9__gnu_cxx27__exchange_and_add_dispatchEPii.exit.i.i.i.i
  %vtable.i.i.i.i.i.i = load ptr, ptr %8, align 8
  %vfn.i.i.i.i.i.i = getelementptr inbounds i8, ptr %vtable.i.i.i.i.i.i, i64 16
  %14 = load ptr, ptr %vfn.i.i.i.i.i.i, align 8
  call void %14(ptr noundef nonnull align 8 dereferenceable(16) %8) #23
  %_M_weak_count.i.i.i.i.i.i2 = getelementptr inbounds i8, ptr %8, i64 12
  %15 = load i8, ptr @__libc_single_threaded, align 1
  %tobool.i.i.not.i.i.i.i.i.i = icmp eq i8 %15, 0
  br i1 %tobool.i.i.not.i.i.i.i.i.i, label %if.else.i.i.i.i.i.i.i, label %if.then.i.i.i.i.i.i.i

if.then.i.i.i.i.i.i.i:                            ; preds = %if.then7.i.i.i.i
  %16 = load i32, ptr %_M_weak_count.i.i.i.i.i.i2, align 4
  %add.i.i.i.i.i.i.i = add nsw i32 %16, -1
  store i32 %add.i.i.i.i.i.i.i, ptr %_M_weak_count.i.i.i.i.i.i2, align 4
  br label %_ZN9__gnu_cxx27__exchange_and_add_dispatchEPii.exit.i.i.i.i.i.i

if.else.i.i.i.i.i.i.i:                            ; preds = %if.then7.i.i.i.i
  %17 = atomicrmw volatile add ptr %_M_weak_count.i.i.i.i.i.i2, i32 -1 acq_rel, align 4
  br label %_ZN9__gnu_cxx27__exchange_and_add_dispatchEPii.exit.i.i.i.i.i.i

_ZN9__gnu_cxx27__exchange_and_add_dispatchEPii.exit.i.i.i.i.i.i: ; preds = %if.else.i.i.i.i.i.i.i, %if.then.i.i.i.i.i.i.i
  %retval.i.0.i.i.i.i.i.i = phi i32 [ %16, %if.then.i.i.i.i.i.i.i ], [ %17, %if.else.i.i.i.i.i.i.i ]
  %cmp.i.i.i.i.i.i = icmp eq i32 %retval.i.0.i.i.i.i.i.i, 1
  br i1 %cmp.i.i.i.i.i.i, label %if.end8.sink.split.i.i.i.i, label %_ZNSt10shared_ptrIN13IlmThread_3_218ThreadPoolProviderEED2Ev.exit

if.end8.sink.split.i.i.i.i:                       ; preds = %_ZN9__gnu_cxx27__exchange_and_add_dispatchEPii.exit.i.i.i.i.i.i, %if.then.i.i.i.i
  %vtable2.i.i.i.i.i.i = load ptr, ptr %8, align 8
  %vfn3.i.i.i.i.i.i = getelementptr inbounds i8, ptr %vtable2.i.i.i.i.i.i, i64 24
  %18 = load ptr, ptr %vfn3.i.i.i.i.i.i, align 8
  call void %18(ptr noundef nonnull align 8 dereferenceable(16) %8) #23
  br label %_ZNSt10shared_ptrIN13IlmThread_3_218ThreadPoolProviderEED2Ev.exit

_ZNSt10shared_ptrIN13IlmThread_3_218ThreadPoolProviderEED2Ev.exit: ; preds = %invoke.cont, %_ZN9__gnu_cxx27__exchange_and_add_dispatchEPii.exit.i.i.i.i, %_ZN9__gnu_cxx27__exchange_and_add_dispatchEPii.exit.i.i.i.i.i.i, %if.end8.sink.split.i.i.i.i
  ret void

lpad:                                             ; preds = %_ZNSt10shared_ptrIN13IlmThread_3_218ThreadPoolProviderEEC2IS1_vEEPT_.exit
  %19 = landingpad { ptr, i32 }
          cleanup
  call void @_ZNSt10shared_ptrIN13IlmThread_3_218ThreadPoolProviderEED2Ev(ptr noundef nonnull align 8 dereferenceable(16) %agg.tmp) #23
  br label %common.resume
}